target datalayout = "e-m:e-p270:32:32-p271:32:32-p272:64:64-i64:64-i128:128-f80:128-n8:16:32:64-S128"
target triple = "x86_64-pc-linux-gnu"

%struct._psqlSettings = type { ptr, i32, ptr, i8, ptr, ptr, %struct.printQueryOpt, ptr, ptr, ptr, i8, i8, i32, i32, ptr, ptr, i8, [4 x ptr], i8, i32, ptr, i8, i32, ptr, ptr, i64, i64, i8, ptr, ptr, ptr, i8, i8, i8, i8, i8, i8, i8, i32, i32, i32, i32, i32, i32, i32, i32, ptr, ptr, ptr, i32, i8, i32 }
%struct.printQueryOpt = type { %struct.printTableOpt, ptr, ptr, ptr, i8, ptr, i32 }
%struct.printTableOpt = type { i32, i16, i32, i32, i16, i16, i32, i8, i8, i8, i8, i64, ptr, %struct.separator, %struct.separator, [2 x i8], i8, ptr, i32, i32, i32, i32, i32, i32 }
%struct.separator = type { ptr, i8 }
%struct.PQExpBufferData = type { ptr, i64, i64 }

@pset = external global %struct._psqlSettings, align 8
@.str.1 = private unnamed_addr constant [7 x i8] c"Schema\00", align 1
@.str.2 = private unnamed_addr constant [5 x i8] c"Name\00", align 1
@.str.6 = private unnamed_addr constant [12 x i8] c"Description\00", align 1
@.str.9 = private unnamed_addr constant [10 x i8] c"n.nspname\00", align 1
@.str.61 = private unnamed_addr constant [4 x i8] c"yes\00", align 1
@.str.62 = private unnamed_addr constant [3 x i8] c"no\00", align 1
@.str.63 = private unnamed_addr constant [11 x i8] c"Leakproof?\00", align 1
@.str.91 = private unnamed_addr constant [2 x i8] c"-\00", align 1
@.str.92 = private unnamed_addr constant [13 x i8] c"nt%d.nspname\00", align 1
@.str.93 = private unnamed_addr constant [12 x i8] c"t%d.typname\00", align 1
@.str.94 = private unnamed_addr constant [38 x i8] c"pg_catalog.format_type(t%d.oid, NULL)\00", align 1
@.str.95 = private unnamed_addr constant [39 x i8] c"pg_catalog.pg_type_is_visible(t%d.oid)\00", align 1
@.str.96 = private unnamed_addr constant [27 x i8] c"  AND t%d.typname IS NULL\0A\00", align 1
@describeOperators.translate_columns = internal constant [8 x i8] c"\00\00\00\00\00\00\01\00", align 1
@.str.114 = private unnamed_addr constant [14 x i8] c"Left arg type\00", align 1
@.str.115 = private unnamed_addr constant [15 x i8] c"Right arg type\00", align 1
@.str.116 = private unnamed_addr constant [12 x i8] c"Result type\00", align 1
@.str.117 = private unnamed_addr constant [82 x i8] c"  o.oprcode AS \22%s\22,\0A  CASE WHEN p.proleakproof THEN '%s' ELSE '%s' END AS \22%s\22,\0A\00", align 1
@.str.118 = private unnamed_addr constant [9 x i8] c"Function\00", align 1
@.str.121 = private unnamed_addr constant [133 x i8] c"     LEFT JOIN pg_catalog.pg_type t0 ON t0.oid = o.oprright\0A     LEFT JOIN pg_catalog.pg_namespace nt0 ON nt0.oid = t0.typnamespace\0A\00", align 1
@.str.122 = private unnamed_addr constant [58 x i8] c"     LEFT JOIN pg_catalog.pg_proc p ON p.oid = o.oprcode\0A\00", align 1
@.str.123 = private unnamed_addr constant [77 x i8] c"WHERE n.nspname <> 'pg_catalog'\0A      AND n.nspname <> 'information_schema'\0A\00", align 1
@.str.124 = private unnamed_addr constant [10 x i8] c"o.oprname\00", align 1
@.str.125 = private unnamed_addr constant [41 x i8] c"pg_catalog.pg_operator_is_visible(o.oid)\00", align 1
@.str.126 = private unnamed_addr constant [21 x i8] c"  AND o.oprleft = 0\0A\00", align 1
@.str.127 = private unnamed_addr constant [21 x i8] c"ORDER BY 1, 2, 3, 4;\00", align 1
@.str.128 = private unnamed_addr constant [18 x i8] c"List of operators\00", align 1

; Function Attrs: nounwind uwtable
define internal ptr @map_typename_pattern(ptr noundef %0) #0 {
  %2 = alloca ptr, align 8
  %3 = alloca ptr, align 8
  %4 = alloca i32, align 4
  %5 = alloca i32, align 4
  store ptr %0, ptr %3, align 8
  %6 = load ptr, ptr %3, align 8
  %7 = icmp eq ptr %6, null
  br i1 %7, label %8, label %9

8:                                                ; preds = %1
  store ptr null, ptr %2, align 8
  br label %39

9:                                                ; preds = %1
  call void @llvm.lifetime.start.p0(i64 4, ptr %4) #8
  store i32 0, ptr %4, align 4
  br label %10

10:                                               ; preds = %32, %9
  %11 = load i32, ptr %4, align 4
  %12 = sext i32 %11 to i64
  %13 = getelementptr inbounds [37 x ptr], ptr @map_typename_pattern.typename_map, i64 0, i64 %12
  %14 = load ptr, ptr %13, align 8
  %15 = icmp ne ptr %14, null
  br i1 %15, label %17, label %16

16:                                               ; preds = %10
  store i32 2, ptr %5, align 4
  br label %35

17:                                               ; preds = %10
  %18 = load ptr, ptr %3, align 8
  %19 = load i32, ptr %4, align 4
  %20 = sext i32 %19 to i64
  %21 = getelementptr inbounds [37 x ptr], ptr @map_typename_pattern.typename_map, i64 0, i64 %20
  %22 = load ptr, ptr %21, align 8
  %23 = call i32 @pg_strcasecmp(ptr noundef %18, ptr noundef %22)
  %24 = icmp eq i32 %23, 0
  br i1 %24, label %25, label %31

25:                                               ; preds = %17
  %26 = load i32, ptr %4, align 4
  %27 = add i32 %26, 1
  %28 = sext i32 %27 to i64
  %29 = getelementptr inbounds [37 x ptr], ptr @map_typename_pattern.typename_map, i64 0, i64 %28
  %30 = load ptr, ptr %29, align 8
  store ptr %30, ptr %2, align 8
  store i32 1, ptr %5, align 4
  br label %35

31:                                               ; preds = %17
  br label %32

32:                                               ; preds = %31
  %33 = load i32, ptr %4, align 4
  %34 = add i32 %33, 2
  store i32 %34, ptr %4, align 4
  br label %10, !llvm.loop !9

35:                                               ; preds = %25, %16
  call void @llvm.lifetime.end.p0(i64 4, ptr %4) #8
  %36 = load i32, ptr %5, align 4
  switch i32 %36, label %41 [
    i32 2, label %37
    i32 1, label %39
  ]

37:                                               ; preds = %35
  %38 = load ptr, ptr %3, align 8
  store ptr %38, ptr %2, align 8
  br label %39

39:                                               ; preds = %37, %35, %8
  %40 = load ptr, ptr %2, align 8
  ret ptr %40

41:                                               ; preds = %35
  unreachable
}

; Function Attrs: nounwind uwtable
define dso_local zeroext i1 @describeOperators(ptr noundef %0, ptr noundef %1, i32 noundef %2, i1 noundef zeroext %3, i1 noundef zeroext %4) #0 {
  %6 = alloca i1, align 1
  %7 = alloca ptr, align 8
  %8 = alloca ptr, align 8
  %9 = alloca i32, align 4
  %10 = alloca i8, align 1
  %11 = alloca i8, align 1
  %12 = alloca %struct.PQExpBufferData, align 8
  %13 = alloca ptr, align 8
  %14 = alloca %struct.printQueryOpt, align 8
  %15 = alloca i32, align 4
  %16 = alloca i32, align 4
  %17 = alloca [64 x i8], align 16
  %18 = alloca [64 x i8], align 16
  %19 = alloca [64 x i8], align 16
  %20 = alloca [64 x i8], align 16
  store ptr %0, ptr %7, align 8
  store ptr %1, ptr %8, align 8
  store i32 %2, ptr %9, align 4
  %21 = zext i1 %3 to i8
  store i8 %21, ptr %10, align 1
  %22 = zext i1 %4 to i8
  store i8 %22, ptr %11, align 1
  call void @llvm.lifetime.start.p0(i64 24, ptr %12) #8
  call void @llvm.lifetime.start.p0(i64 8, ptr %13) #8
  call void @llvm.lifetime.start.p0(i64 168, ptr %14) #8
  call void @llvm.memcpy.p0.p0.i64(ptr align 8 %14, ptr align 8 getelementptr inbounds nuw (%struct._psqlSettings, ptr @pset, i32 0, i32 6), i64 168, i1 false)
  call void @initPQExpBuffer(ptr noundef %12)
  call void (ptr, ptr, ...) @printfPQExpBuffer(ptr noundef %12, ptr noundef @.str.113, ptr noundef @.str.1, ptr noundef @.str.2, ptr noundef @.str.114, ptr noundef @.str.115, ptr noundef @.str.116)
  %23 = load i8, ptr %10, align 1, !range !4, !noundef !5
  %24 = trunc i8 %23 to i1
  br i1 %24, label %25, label %26

25:                                               ; preds = %5
  call void (ptr, ptr, ...) @appendPQExpBuffer(ptr noundef %12, ptr noundef @.str.117, ptr noundef @.str.118, ptr noundef @.str.61, ptr noundef @.str.62, ptr noundef @.str.63)
  br label %26

26:                                               ; preds = %25, %5
  call void (ptr, ptr, ...) @appendPQExpBuffer(ptr noundef %12, ptr noundef @.str.119, ptr noundef @.str.6)
  %27 = load i32, ptr %9, align 4
  %28 = icmp sge i32 %27, 2
  br i1 %28, label %29, label %30

29:                                               ; preds = %26
  store i32 2, ptr %9, align 4
  call void @appendPQExpBufferStr(ptr noundef %12, ptr noundef @.str.120)
  br label %35

30:                                               ; preds = %26
  %31 = load i32, ptr %9, align 4
  %32 = icmp eq i32 %31, 1
  br i1 %32, label %33, label %34

33:                                               ; preds = %30
  call void @appendPQExpBufferStr(ptr noundef %12, ptr noundef @.str.121)
  br label %34

34:                                               ; preds = %33, %30
  br label %35

35:                                               ; preds = %34, %29
  %36 = load i8, ptr %10, align 1, !range !4, !noundef !5
  %37 = trunc i8 %36 to i1
  br i1 %37, label %38, label %39

38:                                               ; preds = %35
  call void @appendPQExpBufferStr(ptr noundef %12, ptr noundef @.str.122)
  br label %39

39:                                               ; preds = %38, %35
  %40 = load i8, ptr %11, align 1, !range !4, !noundef !5
  %41 = trunc i8 %40 to i1
  br i1 %41, label %46, label %42

42:                                               ; preds = %39
  %43 = load ptr, ptr %7, align 8
  %44 = icmp ne ptr %43, null
  br i1 %44, label %46, label %45

45:                                               ; preds = %42
  call void @appendPQExpBufferStr(ptr noundef %12, ptr noundef @.str.123)
  br label %46

46:                                               ; preds = %45, %42, %39
  %47 = load ptr, ptr %7, align 8
  %48 = load i8, ptr %11, align 1, !range !4, !noundef !5
  %49 = trunc i8 %48 to i1
  br i1 %49, label %54, label %50

50:                                               ; preds = %46
  %51 = load ptr, ptr %7, align 8
  %52 = icmp ne ptr %51, null
  %53 = xor i1 %52, true
  br label %54

54:                                               ; preds = %50, %46
  %55 = phi i1 [ false, %46 ], [ %53, %50 ]
  %56 = call zeroext i1 @validateSQLNamePattern(ptr noundef %12, ptr noundef %47, i1 noundef zeroext %55, i1 noundef zeroext true, ptr noundef @.str.9, ptr noundef @.str.124, ptr noundef null, ptr noundef @.str.125, ptr noundef null, i32 noundef 3)
  br i1 %56, label %58, label %57

57:                                               ; preds = %54
  br label %129

58:                                               ; preds = %54
  %59 = load i32, ptr %9, align 4
  %60 = icmp eq i32 %59, 1
  br i1 %60, label %61, label %62

61:                                               ; preds = %58
  call void @appendPQExpBufferStr(ptr noundef %12, ptr noundef @.str.126)
  br label %62

62:                                               ; preds = %61, %58
  call void @llvm.lifetime.start.p0(i64 4, ptr %15) #8
  store i32 0, ptr %15, align 4
  br label %63

63:                                               ; preds = %108, %62
  %64 = load i32, ptr %15, align 4
  %65 = load i32, ptr %9, align 4
  %66 = icmp slt i32 %64, %65
  br i1 %66, label %68, label %67

67:                                               ; preds = %63
  store i32 3, ptr %16, align 4
  br label %111

68:                                               ; preds = %63
  %69 = load ptr, ptr %8, align 8
  %70 = load i32, ptr %15, align 4
  %71 = sext i32 %70 to i64
  %72 = getelementptr inbounds ptr, ptr %69, i64 %71
  %73 = load ptr, ptr %72, align 8
  %74 = call i32 @strcmp(ptr noundef %73, ptr noundef @.str.91) #9
  %75 = icmp ne i32 %74, 0
  br i1 %75, label %76, label %105

76:                                               ; preds = %68
  call void @llvm.lifetime.start.p0(i64 64, ptr %17) #8
  call void @llvm.lifetime.start.p0(i64 64, ptr %18) #8
  call void @llvm.lifetime.start.p0(i64 64, ptr %19) #8
  call void @llvm.lifetime.start.p0(i64 64, ptr %20) #8
  %77 = getelementptr inbounds [64 x i8], ptr %17, i64 0, i64 0
  %78 = load i32, ptr %15, align 4
  %79 = call i32 (ptr, i64, ptr, ...) @pg_snprintf(ptr noundef %77, i64 noundef 64, ptr noundef @.str.92, i32 noundef %78)
  %80 = getelementptr inbounds [64 x i8], ptr %18, i64 0, i64 0
  %81 = load i32, ptr %15, align 4
  %82 = call i32 (ptr, i64, ptr, ...) @pg_snprintf(ptr noundef %80, i64 noundef 64, ptr noundef @.str.93, i32 noundef %81)
  %83 = getelementptr inbounds [64 x i8], ptr %19, i64 0, i64 0
  %84 = load i32, ptr %15, align 4
  %85 = call i32 (ptr, i64, ptr, ...) @pg_snprintf(ptr noundef %83, i64 noundef 64, ptr noundef @.str.94, i32 noundef %84)
  %86 = getelementptr inbounds [64 x i8], ptr %20, i64 0, i64 0
  %87 = load i32, ptr %15, align 4
  %88 = call i32 (ptr, i64, ptr, ...) @pg_snprintf(ptr noundef %86, i64 noundef 64, ptr noundef @.str.95, i32 noundef %87)
  %89 = load ptr, ptr %8, align 8
  %90 = load i32, ptr %15, align 4
  %91 = sext i32 %90 to i64
  %92 = getelementptr inbounds ptr, ptr %89, i64 %91
  %93 = load ptr, ptr %92, align 8
  %94 = call ptr @map_typename_pattern(ptr noundef %93)
  %95 = getelementptr inbounds [64 x i8], ptr %17, i64 0, i64 0
  %96 = getelementptr inbounds [64 x i8], ptr %18, i64 0, i64 0
  %97 = getelementptr inbounds [64 x i8], ptr %19, i64 0, i64 0
  %98 = getelementptr inbounds [64 x i8], ptr %20, i64 0, i64 0
  %99 = call zeroext i1 @validateSQLNamePattern(ptr noundef %12, ptr noundef %94, i1 noundef zeroext true, i1 noundef zeroext false, ptr noundef %95, ptr noundef %96, ptr noundef %97, ptr noundef %98, ptr noundef null, i32 noundef 3)
  br i1 %99, label %101, label %100

100:                                              ; preds = %76
  store i32 2, ptr %16, align 4
  br label %102

101:                                              ; preds = %76
  store i32 0, ptr %16, align 4
  br label %102

102:                                              ; preds = %100, %101
  call void @llvm.lifetime.end.p0(i64 64, ptr %20) #8
  call void @llvm.lifetime.end.p0(i64 64, ptr %19) #8
  call void @llvm.lifetime.end.p0(i64 64, ptr %18) #8
  call void @llvm.lifetime.end.p0(i64 64, ptr %17) #8
  %103 = load i32, ptr %16, align 4
  switch i32 %103, label %111 [
    i32 0, label %104
  ]

104:                                              ; preds = %102
  br label %107

105:                                              ; preds = %68
  %106 = load i32, ptr %15, align 4
  call void (ptr, ptr, ...) @appendPQExpBuffer(ptr noundef %12, ptr noundef @.str.96, i32 noundef %106)
  br label %107

107:                                              ; preds = %105, %104
  br label %108

108:                                              ; preds = %107
  %109 = load i32, ptr %15, align 4
  %110 = add i32 %109, 1
  store i32 %110, ptr %15, align 4
  br label %63, !llvm.loop !10

111:                                              ; preds = %102, %67
  call void @llvm.lifetime.end.p0(i64 4, ptr %15) #8
  %112 = load i32, ptr %16, align 4
  switch i32 %112, label %130 [
    i32 3, label %113
    i32 2, label %129
  ]

113:                                              ; preds = %111
  call void @appendPQExpBufferStr(ptr noundef %12, ptr noundef @.str.127)
  %114 = getelementptr inbounds nuw %struct.PQExpBufferData, ptr %12, i32 0, i32 0
  %115 = load ptr, ptr %114, align 8
  %116 = call ptr @PSQLexec(ptr noundef %115)
  store ptr %116, ptr %13, align 8
  call void @termPQExpBuffer(ptr noundef %12)
  %117 = load ptr, ptr %13, align 8
  %118 = icmp ne ptr %117, null
  br i1 %118, label %120, label %119

119:                                              ; preds = %113
  store i1 false, ptr %6, align 1
  store i32 1, ptr %16, align 4
  br label %130

120:                                              ; preds = %113
  %121 = getelementptr inbounds nuw %struct.printQueryOpt, ptr %14, i32 0, i32 2
  store ptr @.str.128, ptr %121, align 8
  %122 = getelementptr inbounds nuw %struct.printQueryOpt, ptr %14, i32 0, i32 4
  store i8 1, ptr %122, align 8
  %123 = getelementptr inbounds nuw %struct.printQueryOpt, ptr %14, i32 0, i32 5
  store ptr @describeOperators.translate_columns, ptr %123, align 8
  %124 = getelementptr inbounds nuw %struct.printQueryOpt, ptr %14, i32 0, i32 6
  store i32 8, ptr %124, align 8
  %125 = load ptr, ptr %13, align 8
  %126 = load ptr, ptr getelementptr inbounds nuw (%struct._psqlSettings, ptr @pset, i32 0, i32 2), align 8
  %127 = load ptr, ptr getelementptr inbounds nuw (%struct._psqlSettings, ptr @pset, i32 0, i32 28), align 8
  call void @printQuery(ptr noundef %125, ptr noundef %14, ptr noundef %126, i1 noundef zeroext false, ptr noundef %127)
  %128 = load ptr, ptr %13, align 8
  call void @PQclear(ptr noundef %128)
  store i1 true, ptr %6, align 1
  store i32 1, ptr %16, align 4
  br label %130

129:                                              ; preds = %111, %57
  call void @termPQExpBuffer(ptr noundef %12)
  store i1 false, ptr %6, align 1
  store i32 1, ptr %16, align 4
  br label %130

130:                                              ; preds = %129, %120, %119, %111
  call void @llvm.lifetime.end.p0(i64 168, ptr %14) #8
  call void @llvm.lifetime.end.p0(i64 8, ptr %13) #8
  call void @llvm.lifetime.end.p0(i64 24, ptr %12) #8
  %131 = load i1, ptr %6, align 1
  ret i1 %131
}