; Function Attrs: nounwind uwtable
define dso_local noundef zeroext i1 @describeOperators(ptr noundef %0, ptr noundef readonly captures(none) %1, i32 noundef %2, i1 noundef zeroext %3, i1 noundef zeroext %4) local_unnamed_addr #0 {
  %6 = alloca %struct.PQExpBufferData, align 8
  %7 = alloca %struct.printQueryOpt, align 8
  %8 = alloca [64 x i8], align 16
  %9 = alloca [64 x i8], align 16
  %10 = alloca [64 x i8], align 16
  %11 = alloca [64 x i8], align 16
  call void @llvm.lifetime.start.p0(i64 24, ptr nonnull %6) #8
  call void @llvm.lifetime.start.p0(i64 168, ptr nonnull %7) #8
  call void @llvm.memcpy.p0.p0.i64(ptr noundef nonnull align 8 dereferenceable(168) %7, ptr noundef nonnull align 8 dereferenceable(168) getelementptr inbounds nuw (i8, ptr @pset, i64 48), i64 168, i1 false)
  call void @initPQExpBuffer(ptr noundef nonnull %6) #8
  call void (ptr, ptr, ...) @printfPQExpBuffer(ptr noundef nonnull %6, ptr noundef nonnull @.str.113, ptr noundef nonnull @.str.1, ptr noundef nonnull @.str.2, ptr noundef nonnull @.str.114, ptr noundef nonnull @.str.115, ptr noundef nonnull @.str.116) #8
  br i1 %3, label %12, label %13

12:                                               ; preds = %5
  call void (ptr, ptr, ...) @appendPQExpBuffer(ptr noundef nonnull %6, ptr noundef nonnull @.str.117, ptr noundef nonnull @.str.118, ptr noundef nonnull @.str.61, ptr noundef nonnull @.str.62, ptr noundef nonnull @.str.63) #8
  br label %13

13:                                               ; preds = %12, %5
  call void (ptr, ptr, ...) @appendPQExpBuffer(ptr noundef nonnull %6, ptr noundef nonnull @.str.119, ptr noundef nonnull @.str.6) #8
  %14 = icmp sgt i32 %2, 1
  br i1 %14, label %.sink.split, label %15

15:                                               ; preds = %13
  %16 = icmp eq i32 %2, 1
  br i1 %16, label %.sink.split, label %17

.sink.split:                                      ; preds = %15, %13
  %.str.121.sink = phi ptr [ @.str.120, %13 ], [ @.str.121, %15 ]
  %.030.ph = phi i32 [ 2, %13 ], [ 1, %15 ]
  call void @appendPQExpBufferStr(ptr noundef nonnull %6, ptr noundef nonnull %.str.121.sink) #8
  br label %17

17:                                               ; preds = %.sink.split, %15
  %.030 = phi i32 [ %2, %15 ], [ %.030.ph, %.sink.split ]
  br i1 %3, label %18, label %19

18:                                               ; preds = %17
  call void @appendPQExpBufferStr(ptr noundef nonnull %6, ptr noundef nonnull @.str.122) #8
  br label %19

19:                                               ; preds = %18, %17
  %20 = icmp ne ptr %0, null
  %or.cond = or i1 %20, %4
  br i1 %or.cond, label %22, label %21

21:                                               ; preds = %19
  call void @appendPQExpBufferStr(ptr noundef nonnull %6, ptr noundef nonnull @.str.123) #8
  br label %22

22:                                               ; preds = %21, %19
  %23 = xor i1 %or.cond, true
  %24 = call fastcc zeroext i1 @validateSQLNamePattern(ptr noundef %6, ptr noundef %0, i1 noundef zeroext %23, i1 noundef zeroext true, ptr noundef nonnull @.str.9, ptr noundef nonnull @.str.124, ptr noundef null, ptr noundef nonnull @.str.125, ptr noundef null, i32 noundef 3)
  br i1 %24, label %25, label %.loopexit

25:                                               ; preds = %22
  %26 = icmp eq i32 %.030, 1
  br i1 %26, label %.thread40, label %27

.thread40:                                        ; preds = %25
  call void @appendPQExpBufferStr(ptr noundef nonnull %6, ptr noundef nonnull @.str.126) #8
  br label %sub_0.preheader

27:                                               ; preds = %25
  %28 = icmp sgt i32 %.030, 0
  br i1 %28, label %sub_0.preheader, label %.thread

sub_0.preheader:                                  ; preds = %.thread40, %27
  %wide.trip.count = zext nneg i32 %.030 to i64
  br label %sub_0

sub_0:                                            ; preds = %sub_0.preheader, %55
  %indvars.iv = phi i64 [ 0, %sub_0.preheader ], [ %indvars.iv.next, %55 ]
  %29 = getelementptr inbounds nuw ptr, ptr %1, i64 %indvars.iv
  %30 = load ptr, ptr %29, align 8
  %31 = load i8, ptr %30, align 1
  %.not37 = icmp eq i8 %31, 45
  br i1 %.not37, label %.tail, label %.tail.thread

.tail:                                            ; preds = %sub_0
  %32 = getelementptr inbounds nuw i8, ptr %30, i64 1
  %33 = load i8, ptr %32, align 1
  %34 = icmp eq i8 %33, 0
  br i1 %34, label %53, label %.tail.thread

.tail.thread:                                     ; preds = %sub_0, %.tail
  call void @llvm.lifetime.start.p0(i64 64, ptr nonnull %8) #8
  call void @llvm.lifetime.start.p0(i64 64, ptr nonnull %9) #8
  call void @llvm.lifetime.start.p0(i64 64, ptr nonnull %10) #8
  call void @llvm.lifetime.start.p0(i64 64, ptr nonnull %11) #8
  %35 = trunc nuw nsw i64 %indvars.iv to i32
  %36 = call i32 (ptr, i64, ptr, ...) @pg_snprintf(ptr noundef nonnull %8, i64 noundef 64, ptr noundef nonnull @.str.92, i32 noundef %35) #8
  %37 = call i32 (ptr, i64, ptr, ...) @pg_snprintf(ptr noundef nonnull %9, i64 noundef 64, ptr noundef nonnull @.str.93, i32 noundef %35) #8
  %38 = call i32 (ptr, i64, ptr, ...) @pg_snprintf(ptr noundef nonnull %10, i64 noundef 64, ptr noundef nonnull @.str.94, i32 noundef %35) #8
  %39 = call i32 (ptr, i64, ptr, ...) @pg_snprintf(ptr noundef nonnull %11, i64 noundef 64, ptr noundef nonnull @.str.95, i32 noundef %35) #8
  %40 = load ptr, ptr %29, align 8
  %41 = icmp eq ptr %40, null
  br i1 %41, label %map_typename_pattern.exit, label %.preheader.i

.preheader.i:                                     ; preds = %.tail.thread, %51
  %indvars.iv.i = phi i64 [ %indvars.iv.next.i, %51 ], [ 0, %.tail.thread ]
  %42 = getelementptr inbounds nuw [37 x ptr], ptr @map_typename_pattern.typename_map, i64 0, i64 %indvars.iv.i
  %43 = load ptr, ptr %42, align 16
  %44 = call i32 @pg_strcasecmp(ptr noundef nonnull %40, ptr noundef %43) #8
  %45 = icmp eq i32 %44, 0
  br i1 %45, label %46, label %51

46:                                               ; preds = %.preheader.i
  %47 = shl i64 %indvars.iv.i, 32
  %sext.i = ashr exact i64 %47, 32
  %48 = or disjoint i64 %sext.i, 1
  %49 = getelementptr inbounds [37 x ptr], ptr @map_typename_pattern.typename_map, i64 0, i64 %48
  %50 = load ptr, ptr %49, align 8
  br label %map_typename_pattern.exit

51:                                               ; preds = %.preheader.i
  %indvars.iv.next.i = add nuw nsw i64 %indvars.iv.i, 2
  %.not.i = icmp eq i64 %indvars.iv.next.i, 36
  br i1 %.not.i, label %map_typename_pattern.exit, label %.preheader.i, !llvm.loop !6

map_typename_pattern.exit:                        ; preds = %51, %.tail.thread, %46
  %.09.i = phi ptr [ null, %.tail.thread ], [ %50, %46 ], [ %40, %51 ]
  %52 = call fastcc zeroext i1 @validateSQLNamePattern(ptr noundef %6, ptr noundef %.09.i, i1 noundef zeroext true, i1 noundef zeroext false, ptr noundef nonnull %8, ptr noundef nonnull %9, ptr noundef nonnull %10, ptr noundef nonnull %11, ptr noundef null, i32 noundef 3)
  call void @llvm.lifetime.end.p0(i64 64, ptr nonnull %11) #8
  call void @llvm.lifetime.end.p0(i64 64, ptr nonnull %10) #8
  call void @llvm.lifetime.end.p0(i64 64, ptr nonnull %9) #8
  call void @llvm.lifetime.end.p0(i64 64, ptr nonnull %8) #8
  br i1 %52, label %55, label %.loopexit

53:                                               ; preds = %.tail
  %54 = trunc nuw nsw i64 %indvars.iv to i32
  call void (ptr, ptr, ...) @appendPQExpBuffer(ptr noundef nonnull %6, ptr noundef nonnull @.str.96, i32 noundef %54) #8
  br label %55

55:                                               ; preds = %53, %map_typename_pattern.exit
  %indvars.iv.next = add nuw nsw i64 %indvars.iv, 1
  %exitcond.not = icmp eq i64 %indvars.iv.next, %wide.trip.count
  br i1 %exitcond.not, label %.thread, label %sub_0, !llvm.loop !8

.thread:                                          ; preds = %55, %27
  call void @appendPQExpBufferStr(ptr noundef nonnull %6, ptr noundef nonnull @.str.127) #8
  %56 = load ptr, ptr %6, align 8
  %57 = call ptr @PSQLexec(ptr noundef %56) #8
  call void @termPQExpBuffer(ptr noundef nonnull %6) #8
  %.not33 = icmp eq ptr %57, null
  br i1 %.not33, label %65, label %58

58:                                               ; preds = %.thread
  %59 = getelementptr inbounds nuw i8, ptr %7, i64 128
  store ptr @.str.128, ptr %59, align 8
  %60 = getelementptr inbounds nuw i8, ptr %7, i64 144
  store i8 1, ptr %60, align 8
  %61 = getelementptr inbounds nuw i8, ptr %7, i64 152
  store ptr @describeOperators.translate_columns, ptr %61, align 8
  %62 = getelementptr inbounds nuw i8, ptr %7, i64 160
  store i32 8, ptr %62, align 8
  %63 = load ptr, ptr getelementptr inbounds nuw (i8, ptr @pset, i64 16), align 8
  %64 = load ptr, ptr getelementptr inbounds nuw (i8, ptr @pset, i64 376), align 8
  call void @printQuery(ptr noundef nonnull %57, ptr noundef nonnull %7, ptr noundef %63, i1 noundef zeroext false, ptr noundef %64) #8
  call void @PQclear(ptr noundef nonnull %57) #8
  br label %65

.loopexit:                                        ; preds = %map_typename_pattern.exit, %22
  call void @termPQExpBuffer(ptr noundef nonnull %6) #8
  br label %65

65:                                               ; preds = %.thread, %.loopexit, %58
  %.029 = phi i1 [ false, %.loopexit ], [ true, %58 ], [ false, %.thread ]
  call void @llvm.lifetime.end.p0(i64 168, ptr nonnull %7) #8
  call void @llvm.lifetime.end.p0(i64 24, ptr nonnull %6) #8
  ret i1 %.029
}